ARM GAS  /tmp/.private/user/ccJlfhvu.s 			page 1


   1              		.cpu cortex-m4
   2              		.arch armv7e-m
   3              		.fpu fpv4-sp-d16
   4              		.eabi_attribute 27, 1
   5              		.eabi_attribute 28, 1
   6              		.eabi_attribute 20, 1
   7              		.eabi_attribute 21, 1
   8              		.eabi_attribute 23, 3
   9              		.eabi_attribute 24, 1
  10              		.eabi_attribute 25, 1
  11              		.eabi_attribute 26, 1
  12              		.eabi_attribute 30, 1
  13              		.eabi_attribute 34, 1
  14              		.eabi_attribute 18, 4
  15              		.file	"stm32f4xx_hal_cortex.c"
  16              		.text
  17              		.section	.text.HAL_NVIC_SetPriorityGrouping,"ax",%progbits
  18              		.align	1
  19              		.global	HAL_NVIC_SetPriorityGrouping
  20              		.syntax unified
  21              		.thumb
  22              		.thumb_func
  24              	HAL_NVIC_SetPriorityGrouping:
  25              		@ args = 0, pretend = 0, frame = 0
  26              		@ frame_needed = 0, uses_anonymous_args = 0
  27              		@ link register save eliminated.
  28 0000 074A     		ldr	r2, .L2
  29 0002 D368     		ldr	r3, [r2, #12]
  30 0004 23F4E063 		bic	r3, r3, #1792
  31 0008 1B04     		lsls	r3, r3, #16
  32 000a 1B0C     		lsrs	r3, r3, #16
  33 000c 0002     		lsls	r0, r0, #8
  34 000e 00F4E060 		and	r0, r0, #1792
  35 0012 0343     		orrs	r3, r3, r0
  36 0014 43F0BF63 		orr	r3, r3, #100139008
  37 0018 43F40033 		orr	r3, r3, #131072
  38 001c D360     		str	r3, [r2, #12]
  39 001e 7047     		bx	lr
  40              	.L3:
  41              		.align	2
  42              	.L2:
  43 0020 00ED00E0 		.word	-536810240
  45              		.section	.text.HAL_NVIC_SetPriority,"ax",%progbits
  46              		.align	1
  47              		.global	HAL_NVIC_SetPriority
  48              		.syntax unified
  49              		.thumb
  50              		.thumb_func
  52              	HAL_NVIC_SetPriority:
  53              		@ args = 0, pretend = 0, frame = 0
  54              		@ frame_needed = 0, uses_anonymous_args = 0
  55 0000 00B5     		push	{lr}
  56 0002 194B     		ldr	r3, .L10
  57 0004 DB68     		ldr	r3, [r3, #12]
  58 0006 C3F30223 		ubfx	r3, r3, #8, #3
  59 000a C3F1070C 		rsb	ip, r3, #7
  60 000e BCF1040F 		cmp	ip, #4
ARM GAS  /tmp/.private/user/ccJlfhvu.s 			page 2


  61 0012 28BF     		it	cs
  62 0014 4FF0040C 		movcs	ip, #4
  63 0018 03F1040E 		add	lr, r3, #4
  64 001c BEF1060F 		cmp	lr, #6
  65 0020 18D9     		bls	.L8
  66 0022 033B     		subs	r3, r3, #3
  67              	.L5:
  68 0024 4FF0FF3E 		mov	lr, #-1
  69 0028 0EFA0CFC 		lsl	ip, lr, ip
  70 002c 21EA0C01 		bic	r1, r1, ip
  71 0030 9940     		lsls	r1, r1, r3
  72 0032 0EFA03F3 		lsl	r3, lr, r3
  73 0036 22EA0303 		bic	r3, r2, r3
  74 003a 1943     		orrs	r1, r1, r3
  75 003c 0028     		cmp	r0, #0
  76 003e 0BDB     		blt	.L6
  77 0040 0901     		lsls	r1, r1, #4
  78 0042 C9B2     		uxtb	r1, r1
  79 0044 00F16040 		add	r0, r0, #-536870912
  80 0048 00F56140 		add	r0, r0, #57600
  81 004c 80F80013 		strb	r1, [r0, #768]
  82              	.L4:
  83 0050 5DF804FB 		ldr	pc, [sp], #4
  84              	.L8:
  85 0054 0023     		movs	r3, #0
  86 0056 E5E7     		b	.L5
  87              	.L6:
  88 0058 00F00F00 		and	r0, r0, #15
  89 005c 0901     		lsls	r1, r1, #4
  90 005e C9B2     		uxtb	r1, r1
  91 0060 024B     		ldr	r3, .L10+4
  92 0062 1954     		strb	r1, [r3, r0]
  93 0064 F4E7     		b	.L4
  94              	.L11:
  95 0066 00BF     		.align	2
  96              	.L10:
  97 0068 00ED00E0 		.word	-536810240
  98 006c 14ED00E0 		.word	-536810220
 100              		.section	.text.HAL_NVIC_EnableIRQ,"ax",%progbits
 101              		.align	1
 102              		.global	HAL_NVIC_EnableIRQ
 103              		.syntax unified
 104              		.thumb
 105              		.thumb_func
 107              	HAL_NVIC_EnableIRQ:
 108              		@ args = 0, pretend = 0, frame = 0
 109              		@ frame_needed = 0, uses_anonymous_args = 0
 110              		@ link register save eliminated.
 111 0000 0028     		cmp	r0, #0
 112 0002 07DB     		blt	.L12
 113 0004 00F01F02 		and	r2, r0, #31
 114 0008 4009     		lsrs	r0, r0, #5
 115 000a 0123     		movs	r3, #1
 116 000c 9340     		lsls	r3, r3, r2
 117 000e 024A     		ldr	r2, .L14
 118 0010 42F82030 		str	r3, [r2, r0, lsl #2]
 119              	.L12:
ARM GAS  /tmp/.private/user/ccJlfhvu.s 			page 3


 120 0014 7047     		bx	lr
 121              	.L15:
 122 0016 00BF     		.align	2
 123              	.L14:
 124 0018 00E100E0 		.word	-536813312
 126              		.section	.text.HAL_NVIC_DisableIRQ,"ax",%progbits
 127              		.align	1
 128              		.global	HAL_NVIC_DisableIRQ
 129              		.syntax unified
 130              		.thumb
 131              		.thumb_func
 133              	HAL_NVIC_DisableIRQ:
 134              		@ args = 0, pretend = 0, frame = 0
 135              		@ frame_needed = 0, uses_anonymous_args = 0
 136              		@ link register save eliminated.
 137 0000 0028     		cmp	r0, #0
 138 0002 0CDB     		blt	.L16
 139 0004 00F01F02 		and	r2, r0, #31
 140 0008 4009     		lsrs	r0, r0, #5
 141 000a 0123     		movs	r3, #1
 142 000c 9340     		lsls	r3, r3, r2
 143 000e 2030     		adds	r0, r0, #32
 144 0010 034A     		ldr	r2, .L18
 145 0012 42F82030 		str	r3, [r2, r0, lsl #2]
 146              		.syntax unified
 147              	@ 879 "/home/user/STM32Cube/Repository/STM32Cube_FW_F4_V1.27.1/Drivers/CMSIS/Include/cmsis_gcc.h" 1
 148 0016 BFF34F8F 		dsb 0xF
 149              	@ 0 "" 2
 150              	@ 868 "/home/user/STM32Cube/Repository/STM32Cube_FW_F4_V1.27.1/Drivers/CMSIS/Include/cmsis_gcc.h" 1
 151 001a BFF36F8F 		isb 0xF
 152              	@ 0 "" 2
 153              		.thumb
 154              		.syntax unified
 155              	.L16:
 156 001e 7047     		bx	lr
 157              	.L19:
 158              		.align	2
 159              	.L18:
 160 0020 00E100E0 		.word	-536813312
 162              		.section	.text.HAL_NVIC_SystemReset,"ax",%progbits
 163              		.align	1
 164              		.global	HAL_NVIC_SystemReset
 165              		.syntax unified
 166              		.thumb
 167              		.thumb_func
 169              	HAL_NVIC_SystemReset:
 170              		@ Volatile: function does not return.
 171              		@ args = 0, pretend = 0, frame = 0
 172              		@ frame_needed = 0, uses_anonymous_args = 0
 173              		@ link register save eliminated.
 174              		.syntax unified
 175              	@ 879 "/home/user/STM32Cube/Repository/STM32Cube_FW_F4_V1.27.1/Drivers/CMSIS/Include/cmsis_gcc.h" 1
 176 0000 BFF34F8F 		dsb 0xF
 177              	@ 0 "" 2
 178              		.thumb
 179              		.syntax unified
 180 0004 0549     		ldr	r1, .L22
ARM GAS  /tmp/.private/user/ccJlfhvu.s 			page 4


 181 0006 CA68     		ldr	r2, [r1, #12]
 182 0008 02F4E062 		and	r2, r2, #1792
 183 000c 044B     		ldr	r3, .L22+4
 184 000e 1343     		orrs	r3, r3, r2
 185 0010 CB60     		str	r3, [r1, #12]
 186              		.syntax unified
 187              	@ 879 "/home/user/STM32Cube/Repository/STM32Cube_FW_F4_V1.27.1/Drivers/CMSIS/Include/cmsis_gcc.h" 1
 188 0012 BFF34F8F 		dsb 0xF
 189              	@ 0 "" 2
 190              		.thumb
 191              		.syntax unified
 192              	.L21:
 193              		.syntax unified
 194              	@ 1950 "/home/user/STM32Cube/Repository/STM32Cube_FW_F4_V1.27.1/Drivers/CMSIS/Include/core_cm4.h" 1
 195 0016 00BF     		nop
 196              	@ 0 "" 2
 197              		.thumb
 198              		.syntax unified
 199 0018 FDE7     		b	.L21
 200              	.L23:
 201 001a 00BF     		.align	2
 202              	.L22:
 203 001c 00ED00E0 		.word	-536810240
 204 0020 0400FA05 		.word	100270084
 206              		.section	.text.HAL_SYSTICK_Config,"ax",%progbits
 207              		.align	1
 208              		.global	HAL_SYSTICK_Config
 209              		.syntax unified
 210              		.thumb
 211              		.thumb_func
 213              	HAL_SYSTICK_Config:
 214              		@ args = 0, pretend = 0, frame = 0
 215              		@ frame_needed = 0, uses_anonymous_args = 0
 216              		@ link register save eliminated.
 217 0000 0138     		subs	r0, r0, #1
 218 0002 B0F1807F 		cmp	r0, #16777216
 219 0006 0BD2     		bcs	.L26
 220 0008 4FF0E023 		mov	r3, #-536813568
 221 000c 5861     		str	r0, [r3, #20]
 222 000e 054A     		ldr	r2, .L27
 223 0010 F021     		movs	r1, #240
 224 0012 82F82310 		strb	r1, [r2, #35]
 225 0016 0020     		movs	r0, #0
 226 0018 9861     		str	r0, [r3, #24]
 227 001a 0722     		movs	r2, #7
 228 001c 1A61     		str	r2, [r3, #16]
 229 001e 7047     		bx	lr
 230              	.L26:
 231 0020 0120     		movs	r0, #1
 232 0022 7047     		bx	lr
 233              	.L28:
 234              		.align	2
 235              	.L27:
 236 0024 00ED00E0 		.word	-536810240
 238              		.section	.text.HAL_MPU_Disable,"ax",%progbits
 239              		.align	1
 240              		.global	HAL_MPU_Disable
ARM GAS  /tmp/.private/user/ccJlfhvu.s 			page 5


 241              		.syntax unified
 242              		.thumb
 243              		.thumb_func
 245              	HAL_MPU_Disable:
 246              		@ args = 0, pretend = 0, frame = 0
 247              		@ frame_needed = 0, uses_anonymous_args = 0
 248              		@ link register save eliminated.
 249              		.syntax unified
 250              	@ 890 "/home/user/STM32Cube/Repository/STM32Cube_FW_F4_V1.27.1/Drivers/CMSIS/Include/cmsis_gcc.h" 1
 251 0000 BFF35F8F 		dmb 0xF
 252              	@ 0 "" 2
 253              		.thumb
 254              		.syntax unified
 255 0004 044B     		ldr	r3, .L30
 256 0006 5A6A     		ldr	r2, [r3, #36]
 257 0008 22F48032 		bic	r2, r2, #65536
 258 000c 5A62     		str	r2, [r3, #36]
 259 000e 0022     		movs	r2, #0
 260 0010 C3F89420 		str	r2, [r3, #148]
 261 0014 7047     		bx	lr
 262              	.L31:
 263 0016 00BF     		.align	2
 264              	.L30:
 265 0018 00ED00E0 		.word	-536810240
 267              		.section	.text.HAL_MPU_Enable,"ax",%progbits
 268              		.align	1
 269              		.global	HAL_MPU_Enable
 270              		.syntax unified
 271              		.thumb
 272              		.thumb_func
 274              	HAL_MPU_Enable:
 275              		@ args = 0, pretend = 0, frame = 0
 276              		@ frame_needed = 0, uses_anonymous_args = 0
 277              		@ link register save eliminated.
 278 0000 40F00100 		orr	r0, r0, #1
 279 0004 054B     		ldr	r3, .L33
 280 0006 C3F89400 		str	r0, [r3, #148]
 281 000a 5A6A     		ldr	r2, [r3, #36]
 282 000c 42F48032 		orr	r2, r2, #65536
 283 0010 5A62     		str	r2, [r3, #36]
 284              		.syntax unified
 285              	@ 879 "/home/user/STM32Cube/Repository/STM32Cube_FW_F4_V1.27.1/Drivers/CMSIS/Include/cmsis_gcc.h" 1
 286 0012 BFF34F8F 		dsb 0xF
 287              	@ 0 "" 2
 288              	@ 868 "/home/user/STM32Cube/Repository/STM32Cube_FW_F4_V1.27.1/Drivers/CMSIS/Include/cmsis_gcc.h" 1
 289 0016 BFF36F8F 		isb 0xF
 290              	@ 0 "" 2
 291              		.thumb
 292              		.syntax unified
 293 001a 7047     		bx	lr
 294              	.L34:
 295              		.align	2
 296              	.L33:
 297 001c 00ED00E0 		.word	-536810240
 299              		.section	.text.HAL_MPU_ConfigRegion,"ax",%progbits
 300              		.align	1
 301              		.global	HAL_MPU_ConfigRegion
ARM GAS  /tmp/.private/user/ccJlfhvu.s 			page 6


 302              		.syntax unified
 303              		.thumb
 304              		.thumb_func
 306              	HAL_MPU_ConfigRegion:
 307              		@ args = 0, pretend = 0, frame = 0
 308              		@ frame_needed = 0, uses_anonymous_args = 0
 309              		@ link register save eliminated.
 310 0000 4278     		ldrb	r2, [r0, #1]	@ zero_extendqisi2
 311 0002 164B     		ldr	r3, .L38
 312 0004 C3F89820 		str	r2, [r3, #152]
 313 0008 0378     		ldrb	r3, [r0]	@ zero_extendqisi2
 314 000a FBB1     		cbz	r3, .L36
 315 000c 4368     		ldr	r3, [r0, #4]
 316 000e 134A     		ldr	r2, .L38
 317 0010 C2F89C30 		str	r3, [r2, #156]
 318 0014 017B     		ldrb	r1, [r0, #12]	@ zero_extendqisi2
 319 0016 C37A     		ldrb	r3, [r0, #11]	@ zero_extendqisi2
 320 0018 1B06     		lsls	r3, r3, #24
 321 001a 43EA0173 		orr	r3, r3, r1, lsl #28
 322 001e 817A     		ldrb	r1, [r0, #10]	@ zero_extendqisi2
 323 0020 43EAC143 		orr	r3, r3, r1, lsl #19
 324 0024 417B     		ldrb	r1, [r0, #13]	@ zero_extendqisi2
 325 0026 43EA8143 		orr	r3, r3, r1, lsl #18
 326 002a 817B     		ldrb	r1, [r0, #14]	@ zero_extendqisi2
 327 002c 43EA4143 		orr	r3, r3, r1, lsl #17
 328 0030 C17B     		ldrb	r1, [r0, #15]	@ zero_extendqisi2
 329 0032 43EA0143 		orr	r3, r3, r1, lsl #16
 330 0036 417A     		ldrb	r1, [r0, #9]	@ zero_extendqisi2
 331 0038 43EA0123 		orr	r3, r3, r1, lsl #8
 332 003c 017A     		ldrb	r1, [r0, #8]	@ zero_extendqisi2
 333 003e 43EA4103 		orr	r3, r3, r1, lsl #1
 334 0042 0178     		ldrb	r1, [r0]	@ zero_extendqisi2
 335 0044 0B43     		orrs	r3, r3, r1
 336 0046 C2F8A030 		str	r3, [r2, #160]
 337 004a 7047     		bx	lr
 338              	.L36:
 339 004c 034B     		ldr	r3, .L38
 340 004e 0022     		movs	r2, #0
 341 0050 C3F89C20 		str	r2, [r3, #156]
 342 0054 C3F8A020 		str	r2, [r3, #160]
 343 0058 7047     		bx	lr
 344              	.L39:
 345 005a 00BF     		.align	2
 346              	.L38:
 347 005c 00ED00E0 		.word	-536810240
 349              		.section	.text.HAL_NVIC_GetPriorityGrouping,"ax",%progbits
 350              		.align	1
 351              		.global	HAL_NVIC_GetPriorityGrouping
 352              		.syntax unified
 353              		.thumb
 354              		.thumb_func
 356              	HAL_NVIC_GetPriorityGrouping:
 357              		@ args = 0, pretend = 0, frame = 0
 358              		@ frame_needed = 0, uses_anonymous_args = 0
 359              		@ link register save eliminated.
 360 0000 024B     		ldr	r3, .L41
 361 0002 D868     		ldr	r0, [r3, #12]
ARM GAS  /tmp/.private/user/ccJlfhvu.s 			page 7


 362 0004 C0F30220 		ubfx	r0, r0, #8, #3
 363 0008 7047     		bx	lr
 364              	.L42:
 365 000a 00BF     		.align	2
 366              	.L41:
 367 000c 00ED00E0 		.word	-536810240
 369              		.section	.text.HAL_NVIC_GetPriority,"ax",%progbits
 370              		.align	1
 371              		.global	HAL_NVIC_GetPriority
 372              		.syntax unified
 373              		.thumb
 374              		.thumb_func
 376              	HAL_NVIC_GetPriority:
 377              		@ args = 0, pretend = 0, frame = 0
 378              		@ frame_needed = 0, uses_anonymous_args = 0
 379 0000 10B5     		push	{r4, lr}
 380 0002 0028     		cmp	r0, #0
 381 0004 22DB     		blt	.L44
 382 0006 00F16040 		add	r0, r0, #-536870912
 383 000a 00F56140 		add	r0, r0, #57600
 384 000e 90F80003 		ldrb	r0, [r0, #768]	@ zero_extendqisi2
 385 0012 0009     		lsrs	r0, r0, #4
 386              	.L45:
 387 0014 01F00701 		and	r1, r1, #7
 388 0018 C1F1070C 		rsb	ip, r1, #7
 389 001c BCF1040F 		cmp	ip, #4
 390 0020 28BF     		it	cs
 391 0022 4FF0040C 		movcs	ip, #4
 392 0026 0C1D     		adds	r4, r1, #4
 393 0028 062C     		cmp	r4, #6
 394 002a 15D9     		bls	.L47
 395 002c 0339     		subs	r1, r1, #3
 396              	.L46:
 397 002e 20FA01F4 		lsr	r4, r0, r1
 398 0032 4FF0FF3E 		mov	lr, #-1
 399 0036 0EFA0CFC 		lsl	ip, lr, ip
 400 003a 24EA0C04 		bic	r4, r4, ip
 401 003e 1460     		str	r4, [r2]
 402 0040 0EFA01F1 		lsl	r1, lr, r1
 403 0044 20EA0100 		bic	r0, r0, r1
 404 0048 1860     		str	r0, [r3]
 405 004a 10BD     		pop	{r4, pc}
 406              	.L44:
 407 004c 00F00F00 		and	r0, r0, #15
 408 0050 024C     		ldr	r4, .L49
 409 0052 205C     		ldrb	r0, [r4, r0]	@ zero_extendqisi2
 410 0054 0009     		lsrs	r0, r0, #4
 411 0056 DDE7     		b	.L45
 412              	.L47:
 413 0058 0021     		movs	r1, #0
 414 005a E8E7     		b	.L46
 415              	.L50:
 416              		.align	2
 417              	.L49:
 418 005c 14ED00E0 		.word	-536810220
 420              		.section	.text.HAL_NVIC_SetPendingIRQ,"ax",%progbits
 421              		.align	1
ARM GAS  /tmp/.private/user/ccJlfhvu.s 			page 8


 422              		.global	HAL_NVIC_SetPendingIRQ
 423              		.syntax unified
 424              		.thumb
 425              		.thumb_func
 427              	HAL_NVIC_SetPendingIRQ:
 428              		@ args = 0, pretend = 0, frame = 0
 429              		@ frame_needed = 0, uses_anonymous_args = 0
 430              		@ link register save eliminated.
 431 0000 0028     		cmp	r0, #0
 432 0002 08DB     		blt	.L51
 433 0004 00F01F02 		and	r2, r0, #31
 434 0008 4009     		lsrs	r0, r0, #5
 435 000a 0123     		movs	r3, #1
 436 000c 9340     		lsls	r3, r3, r2
 437 000e 4030     		adds	r0, r0, #64
 438 0010 014A     		ldr	r2, .L53
 439 0012 42F82030 		str	r3, [r2, r0, lsl #2]
 440              	.L51:
 441 0016 7047     		bx	lr
 442              	.L54:
 443              		.align	2
 444              	.L53:
 445 0018 00E100E0 		.word	-536813312
 447              		.section	.text.HAL_NVIC_GetPendingIRQ,"ax",%progbits
 448              		.align	1
 449              		.global	HAL_NVIC_GetPendingIRQ
 450              		.syntax unified
 451              		.thumb
 452              		.thumb_func
 454              	HAL_NVIC_GetPendingIRQ:
 455              		@ args = 0, pretend = 0, frame = 0
 456              		@ frame_needed = 0, uses_anonymous_args = 0
 457              		@ link register save eliminated.
 458 0000 0028     		cmp	r0, #0
 459 0002 0BDB     		blt	.L57
 460 0004 4309     		lsrs	r3, r0, #5
 461 0006 4033     		adds	r3, r3, #64
 462 0008 054A     		ldr	r2, .L58
 463 000a 52F82330 		ldr	r3, [r2, r3, lsl #2]
 464 000e 00F01F00 		and	r0, r0, #31
 465 0012 23FA00F0 		lsr	r0, r3, r0
 466 0016 00F00100 		and	r0, r0, #1
 467 001a 7047     		bx	lr
 468              	.L57:
 469 001c 0020     		movs	r0, #0
 470 001e 7047     		bx	lr
 471              	.L59:
 472              		.align	2
 473              	.L58:
 474 0020 00E100E0 		.word	-536813312
 476              		.section	.text.HAL_NVIC_ClearPendingIRQ,"ax",%progbits
 477              		.align	1
 478              		.global	HAL_NVIC_ClearPendingIRQ
 479              		.syntax unified
 480              		.thumb
 481              		.thumb_func
 483              	HAL_NVIC_ClearPendingIRQ:
ARM GAS  /tmp/.private/user/ccJlfhvu.s 			page 9


 484              		@ args = 0, pretend = 0, frame = 0
 485              		@ frame_needed = 0, uses_anonymous_args = 0
 486              		@ link register save eliminated.
 487 0000 0028     		cmp	r0, #0
 488 0002 08DB     		blt	.L60
 489 0004 00F01F02 		and	r2, r0, #31
 490 0008 4009     		lsrs	r0, r0, #5
 491 000a 0123     		movs	r3, #1
 492 000c 9340     		lsls	r3, r3, r2
 493 000e 6030     		adds	r0, r0, #96
 494 0010 014A     		ldr	r2, .L62
 495 0012 42F82030 		str	r3, [r2, r0, lsl #2]
 496              	.L60:
 497 0016 7047     		bx	lr
 498              	.L63:
 499              		.align	2
 500              	.L62:
 501 0018 00E100E0 		.word	-536813312
 503              		.section	.text.HAL_NVIC_GetActive,"ax",%progbits
 504              		.align	1
 505              		.global	HAL_NVIC_GetActive
 506              		.syntax unified
 507              		.thumb
 508              		.thumb_func
 510              	HAL_NVIC_GetActive:
 511              		@ args = 0, pretend = 0, frame = 0
 512              		@ frame_needed = 0, uses_anonymous_args = 0
 513              		@ link register save eliminated.
 514 0000 0028     		cmp	r0, #0
 515 0002 0BDB     		blt	.L66
 516 0004 4309     		lsrs	r3, r0, #5
 517 0006 8033     		adds	r3, r3, #128
 518 0008 054A     		ldr	r2, .L67
 519 000a 52F82330 		ldr	r3, [r2, r3, lsl #2]
 520 000e 00F01F00 		and	r0, r0, #31
 521 0012 23FA00F0 		lsr	r0, r3, r0
 522 0016 00F00100 		and	r0, r0, #1
 523 001a 7047     		bx	lr
 524              	.L66:
 525 001c 0020     		movs	r0, #0
 526 001e 7047     		bx	lr
 527              	.L68:
 528              		.align	2
 529              	.L67:
 530 0020 00E100E0 		.word	-536813312
 532              		.section	.text.HAL_SYSTICK_CLKSourceConfig,"ax",%progbits
 533              		.align	1
 534              		.global	HAL_SYSTICK_CLKSourceConfig
 535              		.syntax unified
 536              		.thumb
 537              		.thumb_func
 539              	HAL_SYSTICK_CLKSourceConfig:
 540              		@ args = 0, pretend = 0, frame = 0
 541              		@ frame_needed = 0, uses_anonymous_args = 0
 542              		@ link register save eliminated.
 543 0000 0428     		cmp	r0, #4
 544 0002 06D0     		beq	.L72
ARM GAS  /tmp/.private/user/ccJlfhvu.s 			page 10


 545 0004 4FF0E022 		mov	r2, #-536813568
 546 0008 1369     		ldr	r3, [r2, #16]
 547 000a 23F00403 		bic	r3, r3, #4
 548 000e 1361     		str	r3, [r2, #16]
 549 0010 7047     		bx	lr
 550              	.L72:
 551 0012 4FF0E022 		mov	r2, #-536813568
 552 0016 1369     		ldr	r3, [r2, #16]
 553 0018 43F00403 		orr	r3, r3, #4
 554 001c 1361     		str	r3, [r2, #16]
 555 001e 7047     		bx	lr
 557              		.section	.text.HAL_SYSTICK_Callback,"ax",%progbits
 558              		.align	1
 559              		.weak	HAL_SYSTICK_Callback
 560              		.syntax unified
 561              		.thumb
 562              		.thumb_func
 564              	HAL_SYSTICK_Callback:
 565              		@ args = 0, pretend = 0, frame = 0
 566              		@ frame_needed = 0, uses_anonymous_args = 0
 567              		@ link register save eliminated.
 568 0000 7047     		bx	lr
 570              		.section	.text.HAL_SYSTICK_IRQHandler,"ax",%progbits
 571              		.align	1
 572              		.global	HAL_SYSTICK_IRQHandler
 573              		.syntax unified
 574              		.thumb
 575              		.thumb_func
 577              	HAL_SYSTICK_IRQHandler:
 578              		@ args = 0, pretend = 0, frame = 0
 579              		@ frame_needed = 0, uses_anonymous_args = 0
 580 0000 08B5     		push	{r3, lr}
 581 0002 FFF7FEFF 		bl	HAL_SYSTICK_Callback
 582 0006 08BD     		pop	{r3, pc}
 584              		.ident	"GCC: (GNU Arm Embedded Toolchain 10.3-2021.10) 10.3.1 20210824 (release)"
ARM GAS  /tmp/.private/user/ccJlfhvu.s 			page 11

